; Function Attrs: noinline nounwind uwtable
define internal fastcc signext range(i8 0, 2) i8 @moProcessAcceptsNoSquash32(ptr noundef readonly captures(none) %0, i32 %.0.val, i32 %.0.val1, ptr noundef readonly captures(none) %1, i64 noundef %2, ptr noundef readonly captures(none) %3, ptr noundef %4) unnamed_addr #4 {
  %6 = and i32 %.0.val1, %.0.val
  %.fr = freeze i32 %6
  %.not.i20 = icmp eq i32 %.fr, 0
  br i1 %.not.i20, label %moProcessAcceptsImpl32.exit, label %.preheader

.preheader:                                       ; preds = %5, %limexRunAccept.exit.thread8
  %.021 = phi i32 [ %9, %limexRunAccept.exit.thread8 ], [ %.fr, %5 ]
  %7 = tail call { i32, i32 } asm "bsf $1, $0\0Abtr $0, $1\0A", "=r,=r,1,~{dirflag},~{fpsr},~{flags}"(i32 %.021) #9, !srcloc !6
  %8 = extractvalue { i32, i32 } %7, 0
  %9 = extractvalue { i32, i32 } %7, 1
  %notmask.i = shl nsw i32 -1, %8
  %10 = xor i32 %notmask.i, -1
  %11 = and i32 %.0.val1, %10
  %12 = tail call range(i32 0, 32) i32 @llvm.ctpop.i32(i32 %11)
  %13 = zext nneg i32 %12 to i64
  %14 = getelementptr inbounds nuw %struct.NFAAccept, ptr %1, i64 %13
  %15 = load i8, ptr %14, align 4
  %.not.i7 = icmp eq i8 %15, 0
  %16 = getelementptr inbounds nuw i8, ptr %14, i64 4
  %17 = load i32, ptr %16, align 4
  br i1 %.not.i7, label %18, label %limexRunAccept.exit

18:                                               ; preds = %.preheader
  %19 = zext i32 %17 to i64
  %20 = getelementptr inbounds nuw i8, ptr %0, i64 %19
  %21 = load i32, ptr %20, align 4
  %.not.i818 = icmp eq i32 %21, -1
  br i1 %.not.i818, label %limexRunAccept.exit.thread8, label %.lr.ph

22:                                               ; preds = %.lr.ph
  %23 = getelementptr inbounds nuw i8, ptr %.09.i19, i64 4
  %24 = load i32, ptr %23, align 4
  %.not.i8 = icmp eq i32 %24, -1
  br i1 %.not.i8, label %limexRunAccept.exit.thread8, label %.lr.ph

.lr.ph:                                           ; preds = %18, %22
  %25 = phi i32 [ %24, %22 ], [ %21, %18 ]
  %.09.i19 = phi ptr [ %23, %22 ], [ %20, %18 ]
  %26 = tail call i32 %3(i64 noundef 0, i64 noundef %2, i32 noundef %25, ptr noundef %4) #8
  %.not = icmp eq i32 %26, 0
  br i1 %.not, label %moProcessAcceptsImpl32.exit, label %22

limexRunAccept.exit:                              ; preds = %.preheader
  %27 = tail call i32 %3(i64 noundef 0, i64 noundef %2, i32 noundef %17, ptr noundef %4) #8
  %.not44.i = icmp eq i32 %27, 0
  br i1 %.not44.i, label %moProcessAcceptsImpl32.exit, label %limexRunAccept.exit.thread8, !prof !8

limexRunAccept.exit.thread8:                      ; preds = %22, %18, %limexRunAccept.exit
  %.not.i = icmp eq i32 %9, 0
  br i1 %.not.i, label %moProcessAcceptsImpl32.exit, label %.preheader

moProcessAcceptsImpl32.exit:                      ; preds = %limexRunAccept.exit.thread8, %limexRunAccept.exit, %.lr.ph, %5
  %.035.i17 = phi i8 [ 0, %5 ], [ 1, %.lr.ph ], [ 0, %limexRunAccept.exit.thread8 ], [ 1, %limexRunAccept.exit ]
  ret i8 %.035.i17
}